target datalayout = "e-m:e-p270:32:32-p271:32:32-p272:64:64-i64:64-i128:128-f80:128-n8:16:32:64-S128"
target triple = "x86_64-pc-linux-gnu"

%"class.absl::debugging_internal::ElfMemImage" = type { ptr, ptr, ptr, ptr, ptr, i32, i64, i64, i64 }
%struct.Elf64_Sym = type { i32, i8, i8, i16, i64, i64 }
%"class.absl::debugging_internal::ElfMemImage::SymbolIterator" = type { %"struct.absl::debugging_internal::ElfMemImage::SymbolInfo", i32, ptr }
%"struct.absl::debugging_internal::ElfMemImage::SymbolInfo" = type { ptr, ptr, ptr, ptr }

@_ZN4absl18debugging_internal11ElfMemImage14SymbolIteratorC1EPKvj = dso_local unnamed_addr alias void (ptr, ptr, i32), ptr @_ZN4absl18debugging_internal11ElfMemImage14SymbolIteratorC2EPKvj

; Function Attrs: mustprogress nounwind uwtable
define dso_local noundef zeroext i1 @_ZNK4absl18debugging_internal11ElfMemImage14SymbolIteratoreqERKS2_(ptr noundef nonnull align 8 dereferenceable(48) %0, ptr noundef nonnull align 8 dereferenceable(48) %1) #4 align 2 {
  %3 = alloca ptr, align 8
  %4 = alloca ptr, align 8
  store ptr %0, ptr %3, align 8, !tbaa !59
  store ptr %1, ptr %4, align 8, !tbaa !59
  %5 = load ptr, ptr %3, align 8
  %6 = getelementptr inbounds nuw %"class.absl::debugging_internal::ElfMemImage::SymbolIterator", ptr %5, i32 0, i32 2
  %7 = load ptr, ptr %6, align 8, !tbaa !66
  %8 = load ptr, ptr %4, align 8, !tbaa !59
  %9 = getelementptr inbounds nuw %"class.absl::debugging_internal::ElfMemImage::SymbolIterator", ptr %8, i32 0, i32 2
  %10 = load ptr, ptr %9, align 8, !tbaa !66
  %11 = icmp eq ptr %7, %10
  br i1 %11, label %12, label %19

12:                                               ; preds = %2
  %13 = getelementptr inbounds nuw %"class.absl::debugging_internal::ElfMemImage::SymbolIterator", ptr %5, i32 0, i32 1
  %14 = load i32, ptr %13, align 8, !tbaa !64
  %15 = load ptr, ptr %4, align 8, !tbaa !59
  %16 = getelementptr inbounds nuw %"class.absl::debugging_internal::ElfMemImage::SymbolIterator", ptr %15, i32 0, i32 1
  %17 = load i32, ptr %16, align 8, !tbaa !64
  %18 = icmp eq i32 %14, %17
  br label %19

19:                                               ; preds = %12, %2
  %20 = phi i1 [ false, %2 ], [ %18, %12 ]
  ret i1 %20
}

; Function Attrs: mustprogress nounwind uwtable
define dso_local noundef i32 @_ZNK4absl18debugging_internal11ElfMemImage13GetNumSymbolsEv(ptr noundef nonnull align 8 dereferenceable(72) %0) #4 align 2 {
  %2 = alloca ptr, align 8
  store ptr %0, ptr %2, align 8, !tbaa !4
  %3 = load ptr, ptr %2, align 8
  %4 = getelementptr inbounds nuw %"class.absl::debugging_internal::ElfMemImage", ptr %3, i32 0, i32 5
  %5 = load i32, ptr %4, align 8, !tbaa !21
  ret i32 %5
}

; Function Attrs: mustprogress uwtable
define dso_local noundef nonnull align 8 dereferenceable(48) ptr @_ZN4absl18debugging_internal11ElfMemImage14SymbolIteratorppEv(ptr noundef nonnull align 8 dereferenceable(48) %0) #0 align 2 {
  %2 = alloca ptr, align 8
  store ptr %0, ptr %2, align 8, !tbaa !59
  %3 = load ptr, ptr %2, align 8
  call void @_ZN4absl18debugging_internal11ElfMemImage14SymbolIterator6UpdateEj(ptr noundef nonnull align 8 dereferenceable(48) %3, i32 noundef 1)
  ret ptr %3
}

; Function Attrs: mustprogress nounwind uwtable
define internal noundef i32 @_ZN4absl18debugging_internal12_GLOBAL__N_17ElfTypeEPK9Elf64_Sym(ptr noundef %0) #4 {
  %2 = alloca ptr, align 8
  store ptr %0, ptr %2, align 8, !tbaa !9
  %3 = load ptr, ptr %2, align 8, !tbaa !9
  %4 = getelementptr inbounds nuw %struct.Elf64_Sym, ptr %3, i32 0, i32 1
  %5 = load i8, ptr %4, align 4, !tbaa !61
  %6 = zext i8 %5 to i32
  %7 = and i32 %6, 15
  ret i32 %7
}

; Function Attrs: mustprogress nounwind uwtable
define dso_local noundef nonnull align 8 dereferenceable(32) ptr @_ZNK4absl18debugging_internal11ElfMemImage14SymbolIteratordeEv(ptr noundef nonnull align 8 dereferenceable(48) %0) #4 align 2 {
  %2 = alloca ptr, align 8
  store ptr %0, ptr %2, align 8, !tbaa !59
  %3 = load ptr, ptr %2, align 8
  %4 = getelementptr inbounds nuw %"class.absl::debugging_internal::ElfMemImage::SymbolIterator", ptr %3, i32 0, i32 0
  ret ptr %4
}

; Function Attrs: mustprogress nounwind uwtable
define dso_local noundef zeroext i1 @_ZNK4absl18debugging_internal11ElfMemImage14SymbolIteratorneERKS2_(ptr noundef nonnull align 8 dereferenceable(48) %0, ptr noundef nonnull align 8 dereferenceable(48) %1) #4 align 2 {
  %3 = alloca ptr, align 8
  %4 = alloca ptr, align 8
  store ptr %0, ptr %3, align 8, !tbaa !59
  store ptr %1, ptr %4, align 8, !tbaa !59
  %5 = load ptr, ptr %3, align 8
  %6 = load ptr, ptr %4, align 8, !tbaa !59
  %7 = call noundef zeroext i1 @_ZNK4absl18debugging_internal11ElfMemImage14SymbolIteratoreqERKS2_(ptr noundef nonnull align 8 dereferenceable(48) %5, ptr noundef nonnull align 8 dereferenceable(48) %6)
  %8 = xor i1 %7, true
  ret i1 %8
}

; Function Attrs: mustprogress uwtable
define dso_local void @_ZNK4absl18debugging_internal11ElfMemImage3endEv(ptr dead_on_unwind noalias writable sret(%"class.absl::debugging_internal::ElfMemImage::SymbolIterator") align 8 %0, ptr noundef nonnull align 8 dereferenceable(72) %1) #0 align 2 {
  %3 = alloca ptr, align 8
  store ptr %1, ptr %3, align 8, !tbaa !4
  %4 = load ptr, ptr %3, align 8
  %5 = call noundef i32 @_ZNK4absl18debugging_internal11ElfMemImage13GetNumSymbolsEv(ptr noundef nonnull align 8 dereferenceable(72) %4)
  call void @_ZN4absl18debugging_internal11ElfMemImage14SymbolIteratorC1EPKvj(ptr noundef nonnull align 8 dereferenceable(48) %0, ptr noundef %4, i32 noundef %5)
  ret void
}

; Function Attrs: mustprogress uwtable
define dso_local void @_ZNK4absl18debugging_internal11ElfMemImage5beginEv(ptr dead_on_unwind noalias writable sret(%"class.absl::debugging_internal::ElfMemImage::SymbolIterator") align 8 %0, ptr noundef nonnull align 8 dereferenceable(72) %1) #0 align 2 {
  %3 = alloca ptr, align 8
  store ptr %1, ptr %3, align 8, !tbaa !4
  %4 = load ptr, ptr %3, align 8
  call void @_ZN4absl18debugging_internal11ElfMemImage14SymbolIteratorC1EPKvj(ptr noundef nonnull align 8 dereferenceable(48) %0, ptr noundef %4, i32 noundef 0)
  call void @_ZN4absl18debugging_internal11ElfMemImage14SymbolIterator6UpdateEj(ptr noundef nonnull align 8 dereferenceable(48) %0, i32 noundef 0)
  ret void
}

; Function Attrs: mustprogress uwtable
define dso_local noundef zeroext i1 @_ZNK4absl18debugging_internal11ElfMemImage12LookupSymbolEPKcS3_iPNS1_10SymbolInfoE(ptr noundef nonnull align 8 dereferenceable(72) %0, ptr noundef %1, ptr noundef %2, i32 noundef %3, ptr noundef %4) #0 align 2 {
  %6 = alloca i1, align 1
  %7 = alloca ptr, align 8
  %8 = alloca ptr, align 8
  %9 = alloca ptr, align 8
  %10 = alloca i32, align 4
  %11 = alloca ptr, align 8
  %12 = alloca ptr, align 8
  %13 = alloca %"class.absl::debugging_internal::ElfMemImage::SymbolIterator", align 8
  %14 = alloca %"class.absl::debugging_internal::ElfMemImage::SymbolIterator", align 8
  %15 = alloca i32, align 4
  %16 = alloca ptr, align 8
  store ptr %0, ptr %7, align 8, !tbaa !4
  store ptr %1, ptr %8, align 8, !tbaa !10
  store ptr %2, ptr %9, align 8, !tbaa !10
  store i32 %3, ptr %10, align 4, !tbaa !26
  store ptr %4, ptr %11, align 8, !tbaa !52
  %17 = load ptr, ptr %7, align 8
  call void @llvm.lifetime.start.p0(i64 8, ptr %12) #7
  store ptr %17, ptr %12, align 8, !tbaa !4
  call void @llvm.lifetime.start.p0(i64 48, ptr %13) #7
  %18 = load ptr, ptr %12, align 8, !tbaa !4
  call void @_ZNK4absl18debugging_internal11ElfMemImage5beginEv(ptr dead_on_unwind writable sret(%"class.absl::debugging_internal::ElfMemImage::SymbolIterator") align 8 %13, ptr noundef nonnull align 8 dereferenceable(72) %18)
  call void @llvm.lifetime.start.p0(i64 48, ptr %14) #7
  %19 = load ptr, ptr %12, align 8, !tbaa !4
  call void @_ZNK4absl18debugging_internal11ElfMemImage3endEv(ptr dead_on_unwind writable sret(%"class.absl::debugging_internal::ElfMemImage::SymbolIterator") align 8 %14, ptr noundef nonnull align 8 dereferenceable(72) %19)
  br label %20

20:                                               ; preds = %56, %5
  %21 = call noundef zeroext i1 @_ZNK4absl18debugging_internal11ElfMemImage14SymbolIteratorneERKS2_(ptr noundef nonnull align 8 dereferenceable(48) %13, ptr noundef nonnull align 8 dereferenceable(48) %14)
  br i1 %21, label %23, label %22

22:                                               ; preds = %20
  store i32 2, ptr %15, align 4
  br label %58

23:                                               ; preds = %20
  call void @llvm.lifetime.start.p0(i64 8, ptr %16) #7
  %24 = call noundef nonnull align 8 dereferenceable(32) ptr @_ZNK4absl18debugging_internal11ElfMemImage14SymbolIteratordeEv(ptr noundef nonnull align 8 dereferenceable(48) %13)
  store ptr %24, ptr %16, align 8, !tbaa !52
  %25 = load ptr, ptr %16, align 8, !tbaa !52
  %26 = getelementptr inbounds nuw %"struct.absl::debugging_internal::ElfMemImage::SymbolInfo", ptr %25, i32 0, i32 0
  %27 = load ptr, ptr %26, align 8, !tbaa !54
  %28 = load ptr, ptr %8, align 8, !tbaa !10
  %29 = call i32 @strcmp(ptr noundef %27, ptr noundef %28) #8
  %30 = icmp eq i32 %29, 0
  br i1 %30, label %31, label %52

31:                                               ; preds = %23
  %32 = load ptr, ptr %16, align 8, !tbaa !52
  %33 = getelementptr inbounds nuw %"struct.absl::debugging_internal::ElfMemImage::SymbolInfo", ptr %32, i32 0, i32 1
  %34 = load ptr, ptr %33, align 8, !tbaa !56
  %35 = load ptr, ptr %9, align 8, !tbaa !10
  %36 = call i32 @strcmp(ptr noundef %34, ptr noundef %35) #8
  %37 = icmp eq i32 %36, 0
  br i1 %37, label %38, label %52

38:                                               ; preds = %31
  %39 = load ptr, ptr %16, align 8, !tbaa !52
  %40 = getelementptr inbounds nuw %"struct.absl::debugging_internal::ElfMemImage::SymbolInfo", ptr %39, i32 0, i32 3
  %41 = load ptr, ptr %40, align 8, !tbaa !57
  %42 = call noundef i32 @_ZN4absl18debugging_internal12_GLOBAL__N_17ElfTypeEPK9Elf64_Sym(ptr noundef %41)
  %43 = load i32, ptr %10, align 4, !tbaa !26
  %44 = icmp eq i32 %42, %43
  br i1 %44, label %45, label %52

45:                                               ; preds = %38
  %46 = load ptr, ptr %11, align 8, !tbaa !52
  %47 = icmp ne ptr %46, null
  br i1 %47, label %48, label %51

48:                                               ; preds = %45
  %49 = load ptr, ptr %16, align 8, !tbaa !52
  %50 = load ptr, ptr %11, align 8, !tbaa !52
  call void @llvm.memcpy.p0.p0.i64(ptr align 8 %50, ptr align 8 %49, i64 32, i1 false), !tbaa.struct !58
  br label %51

51:                                               ; preds = %48, %45
  store i1 true, ptr %6, align 1
  store i32 1, ptr %15, align 4
  br label %53

52:                                               ; preds = %38, %31, %23
  store i32 0, ptr %15, align 4
  br label %53

53:                                               ; preds = %52, %51
  call void @llvm.lifetime.end.p0(i64 8, ptr %16) #7
  %54 = load i32, ptr %15, align 4
  switch i32 %54, label %58 [
    i32 0, label %55
  ]

55:                                               ; preds = %53
  br label %56

56:                                               ; preds = %55
  %57 = call noundef nonnull align 8 dereferenceable(48) ptr @_ZN4absl18debugging_internal11ElfMemImage14SymbolIteratorppEv(ptr noundef nonnull align 8 dereferenceable(48) %13)
  br label %20

58:                                               ; preds = %53, %22
  call void @llvm.lifetime.end.p0(i64 48, ptr %14) #7
  call void @llvm.lifetime.end.p0(i64 48, ptr %13) #7
  call void @llvm.lifetime.end.p0(i64 8, ptr %12) #7
  %59 = load i32, ptr %15, align 4
  switch i32 %59, label %63 [
    i32 2, label %60
    i32 1, label %61
  ]

60:                                               ; preds = %58
  store i1 false, ptr %6, align 1
  br label %61

61:                                               ; preds = %60, %58
  %62 = load i1, ptr %6, align 1
  ret i1 %62

63:                                               ; preds = %58
  unreachable
}