; Function Attrs: mustprogress uwtable
define dso_local noundef zeroext i1 @_ZNK4absl18debugging_internal11ElfMemImage12LookupSymbolEPKcS3_iPNS1_10SymbolInfoE(ptr noundef nonnull align 8 dereferenceable(72) %0, ptr noundef readonly captures(none) %1, ptr noundef readonly captures(none) %2, i32 noundef %3, ptr noundef writeonly captures(address_is_null) %4) local_unnamed_addr #0 align 2 {
  %6 = alloca %"class.absl::debugging_internal::ElfMemImage::SymbolIterator", align 8
  call void @llvm.lifetime.start.p0(i64 48, ptr nonnull %6) #11
  %7 = getelementptr inbounds nuw i8, ptr %6, i64 32
  store i32 0, ptr %7, align 8, !tbaa !47, !alias.scope !50
  %8 = getelementptr inbounds nuw i8, ptr %6, i64 40
  store ptr %0, ptr %8, align 8, !tbaa !53, !alias.scope !50
  call void @_ZN4absl18debugging_internal11ElfMemImage14SymbolIterator6UpdateEj(ptr noundef nonnull align 8 dereferenceable(48) %6, i32 noundef 0)
  %9 = getelementptr inbounds nuw i8, ptr %0, i64 40
  %10 = load i32, ptr %9, align 8, !tbaa !38, !noalias !54
  %11 = load ptr, ptr %8, align 8, !tbaa !53
  %12 = icmp ne ptr %11, %0
  %13 = load i32, ptr %7, align 8
  %14 = icmp ne i32 %13, %10
  %.not3.i.not.not24 = select i1 %12, i1 true, i1 %14
  br i1 %.not3.i.not.not24, label %.lr.ph, label %.critedge

.lr.ph:                                           ; preds = %5
  %15 = getelementptr inbounds nuw i8, ptr %6, i64 8
  %16 = getelementptr inbounds nuw i8, ptr %6, i64 24
  br label %17

17:                                               ; preds = %.lr.ph, %33
  %18 = load ptr, ptr %6, align 8, !tbaa !57
  %19 = tail call i32 @strcmp(ptr noundef nonnull dereferenceable(1) %18, ptr noundef nonnull dereferenceable(1) %1) #12
  %20 = icmp eq i32 %19, 0
  br i1 %20, label %21, label %33

21:                                               ; preds = %17
  %22 = load ptr, ptr %15, align 8, !tbaa !58
  %23 = tail call i32 @strcmp(ptr noundef nonnull dereferenceable(1) %22, ptr noundef nonnull dereferenceable(1) %2) #12
  %24 = icmp eq i32 %23, 0
  br i1 %24, label %25, label %33

25:                                               ; preds = %21
  %26 = load ptr, ptr %16, align 8, !tbaa !59
  %27 = getelementptr i8, ptr %26, i64 4
  %.val = load i8, ptr %27, align 4, !tbaa !60
  %28 = and i8 %.val, 15
  %29 = zext nneg i8 %28 to i32
  %30 = icmp eq i32 %3, %29
  br i1 %30, label %31, label %33

31:                                               ; preds = %25
  %.not = icmp eq ptr %4, null
  br i1 %.not, label %.critedge, label %32

32:                                               ; preds = %31
  call void @llvm.memcpy.p0.p0.i64(ptr noundef nonnull align 8 dereferenceable(32) %4, ptr noundef nonnull align 8 dereferenceable(32) %6, i64 32, i1 false), !tbaa.struct !61
  br label %.critedge

33:                                               ; preds = %25, %21, %17
  call void @_ZN4absl18debugging_internal11ElfMemImage14SymbolIterator6UpdateEj(ptr noundef nonnull align 8 dereferenceable(48) %6, i32 noundef 1)
  %34 = load ptr, ptr %8, align 8, !tbaa !53
  %35 = icmp ne ptr %34, %0
  %36 = load i32, ptr %7, align 8
  %37 = icmp ne i32 %36, %10
  %.not3.i.not.not = select i1 %35, i1 true, i1 %37
  br i1 %.not3.i.not.not, label %17, label %.critedge

.critedge:                                        ; preds = %33, %5, %32, %31
  %.not3.i.not.not23 = phi i1 [ true, %32 ], [ true, %31 ], [ false, %5 ], [ false, %33 ]
  call void @llvm.lifetime.end.p0(i64 48, ptr nonnull %6) #11
  ret i1 %.not3.i.not.not23
}